; Function Attrs: nounwind uwtable
define ptr @l_Std_Time_Month_Ordinal_toHours(i8 noundef zeroext %0, ptr noundef %1) local_unnamed_addr #0 {
  %3 = tail call ptr @l_Std_Time_Month_Ordinal_toSeconds(i8 noundef zeroext %0, ptr noundef %1)
  %4 = load ptr, ptr @l_Std_Time_Month_Ordinal_toMinutes___closed__1, align 8, !tbaa !11
  %5 = ptrtoint ptr %3 to i64
  %6 = and i64 %5, 1
  %.not.i11 = icmp eq i64 %6, 0
  br i1 %.not.i11, label %33, label %7, !prof !13

7:                                                ; preds = %2
  %8 = ptrtoint ptr %4 to i64
  %9 = and i64 %8, 1
  %.not18.i = icmp eq i64 %9, 0
  br i1 %.not18.i, label %lean_int_ediv.exit.thread22, label %11, !prof !13

lean_int_ediv.exit.thread22:                      ; preds = %7
  %10 = tail call ptr @lean_int_big_ediv(ptr noundef %3, ptr noundef %4) #5
  br label %lean_dec.exit8

11:                                               ; preds = %7
  %12 = lshr i64 %8, 1
  %13 = trunc i64 %12 to i32
  %14 = icmp eq i32 %13, 0
  br i1 %14, label %lean_dec.exit8, label %15

15:                                               ; preds = %11
  %sext.i = shl i64 %12, 32
  %16 = ashr exact i64 %sext.i, 32
  %17 = shl i64 %5, 31
  %18 = ashr i64 %17, 32
  %19 = sdiv i64 %18, %16
  %20 = srem i64 %18, %16
  %21 = icmp slt i64 %20, 0
  %22 = icmp sgt i32 %13, 0
  %.v.i = select i1 %22, i64 -1, i64 1
  %23 = select i1 %21, i64 %.v.i, i64 0
  %.016.i = add nsw i64 %23, %19
  %24 = add nsw i64 %.016.i, 2147483648
  %25 = icmp ult i64 %24, 4294967296
  br i1 %25, label %26, label %31, !prof !10

26:                                               ; preds = %15
  %27 = shl nsw i64 %.016.i, 1
  %28 = and i64 %27, 8589934590
  %29 = or disjoint i64 %28, 1
  %30 = inttoptr i64 %29 to ptr
  br label %lean_dec.exit8

31:                                               ; preds = %15
  %32 = tail call ptr @lean_big_int64_to_int(i64 noundef range(i64 -4611686016279904256, 4611686018427387905) %.016.i) #5
  br label %lean_dec.exit8

33:                                               ; preds = %2
  %34 = tail call ptr @lean_int_big_ediv(ptr noundef %3, ptr noundef %4) #5
  %35 = load i32, ptr %3, align 4, !tbaa !5
  %36 = icmp sgt i32 %35, 1
  br i1 %36, label %37, label %39, !prof !10

37:                                               ; preds = %33
  %38 = add nsw i32 %35, -1
  store i32 %38, ptr %3, align 4, !tbaa !5
  br label %lean_dec.exit8

39:                                               ; preds = %33
  %.not.i = icmp eq i32 %35, 0
  br i1 %.not.i, label %lean_dec.exit8, label %40

40:                                               ; preds = %39
  tail call void @lean_dec_ref_cold(ptr noundef nonnull %3) #5
  br label %lean_dec.exit8

lean_dec.exit8:                                   ; preds = %31, %26, %11, %40, %39, %37, %lean_int_ediv.exit.thread22
  %.1.i21 = phi ptr [ %10, %lean_int_ediv.exit.thread22 ], [ %34, %37 ], [ %34, %39 ], [ %34, %40 ], [ %32, %31 ], [ %30, %26 ], [ inttoptr (i64 1 to ptr), %11 ]
  %41 = ptrtoint ptr %.1.i21 to i64
  %42 = and i64 %41, 1
  %.not.i12 = icmp eq i64 %42, 0
  br i1 %.not.i12, label %69, label %43, !prof !13

43:                                               ; preds = %lean_dec.exit8
  %44 = ptrtoint ptr %4 to i64
  %45 = and i64 %44, 1
  %.not18.i13 = icmp eq i64 %45, 0
  br i1 %.not18.i13, label %lean_int_ediv.exit19.thread25, label %47, !prof !13

lean_int_ediv.exit19.thread25:                    ; preds = %43
  %46 = tail call ptr @lean_int_big_ediv(ptr noundef %.1.i21, ptr noundef %4) #5
  br label %lean_dec.exit

47:                                               ; preds = %43
  %48 = lshr i64 %44, 1
  %49 = trunc i64 %48 to i32
  %50 = icmp eq i32 %49, 0
  br i1 %50, label %lean_dec.exit, label %51

51:                                               ; preds = %47
  %sext.i14 = shl i64 %48, 32
  %52 = ashr exact i64 %sext.i14, 32
  %53 = shl i64 %41, 31
  %54 = ashr i64 %53, 32
  %55 = sdiv i64 %54, %52
  %56 = srem i64 %54, %52
  %57 = icmp slt i64 %56, 0
  %58 = icmp sgt i32 %49, 0
  %.v.i15 = select i1 %58, i64 -1, i64 1
  %59 = select i1 %57, i64 %.v.i15, i64 0
  %.016.i16 = add nsw i64 %59, %55
  %60 = add nsw i64 %.016.i16, 2147483648
  %61 = icmp ult i64 %60, 4294967296
  br i1 %61, label %62, label %67, !prof !10

62:                                               ; preds = %51
  %63 = shl nsw i64 %.016.i16, 1
  %64 = and i64 %63, 8589934590
  %65 = or disjoint i64 %64, 1
  %66 = inttoptr i64 %65 to ptr
  br label %lean_dec.exit

67:                                               ; preds = %51
  %68 = tail call ptr @lean_big_int64_to_int(i64 noundef range(i64 -4611686016279904256, 4611686018427387905) %.016.i16) #5
  br label %lean_dec.exit

69:                                               ; preds = %lean_dec.exit8
  %70 = tail call ptr @lean_int_big_ediv(ptr noundef %.1.i21, ptr noundef %4) #5
  %71 = load i32, ptr %.1.i21, align 4, !tbaa !5
  %72 = icmp sgt i32 %71, 1
  br i1 %72, label %73, label %75, !prof !10

73:                                               ; preds = %69
  %74 = add nsw i32 %71, -1
  store i32 %74, ptr %.1.i21, align 4, !tbaa !5
  br label %lean_dec.exit

75:                                               ; preds = %69
  %.not.i9 = icmp eq i32 %71, 0
  br i1 %.not.i9, label %lean_dec.exit, label %76

76:                                               ; preds = %75
  tail call void @lean_dec_ref_cold(ptr noundef nonnull %.1.i21) #5
  br label %lean_dec.exit

lean_dec.exit:                                    ; preds = %67, %62, %47, %76, %75, %73, %lean_int_ediv.exit19.thread25
  %.1.i1724 = phi ptr [ %46, %lean_int_ediv.exit19.thread25 ], [ %70, %73 ], [ %70, %75 ], [ %70, %76 ], [ %68, %67 ], [ %66, %62 ], [ inttoptr (i64 1 to ptr), %47 ]
  ret ptr %.1.i1724
}